; ModuleID = '30/76.c'
source_filename = "30/76.c"
target datalayout = "e-m:e-p270:32:32-p271:32:32-p272:64:64-i64:64-f80:128-n8:16:32:64-S128"
target triple = "x86_64-pc-linux-gnu"

@.str = private unnamed_addr constant [3 x i8] c"%d\00", align 1

; Function Attrs: noinline nounwind uwtable
define dso_local void @main() #0 {
  %1 = alloca i32, align 4
  %2 = alloca i32, align 4
  %3 = alloca i32, align 4
  store i32 0, i32* %3, align 4
  %4 = call i32 (i8*, ...) @__isoc99_scanf(i8* getelementptr inbounds ([3 x i8], [3 x i8]* @.str, i64 0, i64 0), i32* %1)
  store i32 1, i32* %2, align 4
  br label %5

5:                                                ; preds = %43, %0
  %6 = load i32, i32* %2, align 4
  %7 = load i32, i32* %1, align 4
  %8 = icmp sle i32 %6, %7
  br i1 %8, label %9, label %46

9:                                                ; preds = %5
  %10 = load i32, i32* %2, align 4
  %11 = sdiv i32 %10, 100
  %12 = icmp ne i32 %11, 7
  br i1 %12, label %13, label %42

13:                                               ; preds = %9
  %14 = load i32, i32* %2, align 4
  %15 = sdiv i32 %14, 10
  %16 = srem i32 %15, 10
  %17 = icmp ne i32 %16, 7
  br i1 %17, label %18, label %42

18:                                               ; preds = %13
  %19 = load i32, i32* %2, align 4
  %20 = srem i32 %19, 7
  %21 = icmp ne i32 %20, 0
  br i1 %21, label %22, label %42

22:                                               ; preds = %18
  %23 = load i32, i32* %2, align 4
  %24 = icmp ne i32 %23, 7
  br i1 %24, label %25, label %42

25:                                               ; preds = %22
  %26 = load i32, i32* %2, align 4
  %27 = sdiv i32 %26, 10
  %28 = icmp ne i32 %27, 7
  br i1 %28, label %29, label %42

29:                                               ; preds = %25
  %30 = load i32, i32* %2, align 4
  %31 = load i32, i32* %2, align 4
  %32 = sdiv i32 %31, 10
  %33 = mul nsw i32 %32, 10
  %34 = sub nsw i32 %30, %33
  %35 = icmp ne i32 %34, 7
  br i1 %35, label %36, label %42

36:                                               ; preds = %29
  %37 = load i32, i32* %2, align 4
  %38 = load i32, i32* %2, align 4
  %39 = mul nsw i32 %37, %38
  %40 = load i32, i32* %3, align 4
  %41 = add nsw i32 %40, %39
  store i32 %41, i32* %3, align 4
  br label %42

42:                                               ; preds = %36, %29, %25, %22, %18, %13, %9
  br label %43

43:                                               ; preds = %42
  %44 = load i32, i32* %2, align 4
  %45 = add nsw i32 %44, 1
  store i32 %45, i32* %2, align 4
  br label %5

46:                                               ; preds = %5
  %47 = load i32, i32* %3, align 4
  %48 = call i32 (i8*, ...) @printf(i8* getelementptr inbounds ([3 x i8], [3 x i8]* @.str, i64 0, i64 0), i32 %47)
  ret void
}

declare dso_local i32 @__isoc99_scanf(i8*, ...) #1

declare dso_local i32 @printf(i8*, ...) #1


!llvm.module.flags = !{!0}
!llvm.ident = !{!1}

!0 = !{i32 1, !"wchar_size", i32 4}
!1 = !{!"clang version 10.0.0-4ubuntu1 "}
